target datalayout = "e-m:e-p270:32:32-p271:32:32-p272:64:64-i64:64-i128:128-f80:128-n8:16:32:64-S128"
target triple = "x86_64-pc-linux-gnu"

%"struct.icu_77::number::impl::Modifier::Parameters" = type { ptr, i32, i32 }

@_ZN6icu_776number4impl8Modifier10ParametersC1Ev = unnamed_addr alias void (ptr), ptr @_ZN6icu_776number4impl8Modifier10ParametersC2Ev

; Function Attrs: mustprogress uwtable
define noundef zeroext i1 @_ZNK6icu_776number4impl8Modifier22semanticallyEquivalentERKS2_(ptr noundef nonnull align 8 dereferenceable(8) %0, ptr noundef nonnull align 8 dereferenceable(8) %1) #2 align 2 {
  %3 = alloca i1, align 1
  %4 = alloca ptr, align 8
  %5 = alloca ptr, align 8
  %6 = alloca %"struct.icu_77::number::impl::Modifier::Parameters", align 8
  %7 = alloca %"struct.icu_77::number::impl::Modifier::Parameters", align 8
  %8 = alloca i32, align 4
  %9 = alloca i64, align 8
  %10 = alloca i32, align 4
  %11 = alloca i64, align 8
  %12 = alloca i32, align 4
  %13 = alloca ptr, align 8
  %14 = alloca ptr, align 8
  store ptr %0, ptr %4, align 8, !tbaa !3
  store ptr %1, ptr %5, align 8, !tbaa !3
  %15 = load ptr, ptr %4, align 8
  call void @llvm.lifetime.start.p0(i64 16, ptr %6) #15
  call void @_ZN6icu_776number4impl8Modifier10ParametersC1Ev(ptr noundef nonnull align 8 dereferenceable(16) %6)
  call void @llvm.lifetime.start.p0(i64 16, ptr %7) #15
  call void @_ZN6icu_776number4impl8Modifier10ParametersC1Ev(ptr noundef nonnull align 8 dereferenceable(16) %7)
  %16 = load ptr, ptr %15, align 8, !tbaa !20
  %17 = getelementptr inbounds ptr, ptr %16, i64 7
  %18 = load ptr, ptr %17, align 8
  call void %18(ptr noundef nonnull align 8 dereferenceable(8) %15, ptr noundef nonnull align 8 dereferenceable(16) %6)
  %19 = load ptr, ptr %5, align 8, !tbaa !3
  %20 = load ptr, ptr %19, align 8, !tbaa !20
  %21 = getelementptr inbounds ptr, ptr %20, i64 7
  %22 = load ptr, ptr %21, align 8
  call void %22(ptr noundef nonnull align 8 dereferenceable(8) %19, ptr noundef nonnull align 8 dereferenceable(16) %7)
  %23 = getelementptr inbounds nuw %"struct.icu_77::number::impl::Modifier::Parameters", ptr %6, i32 0, i32 0
  %24 = load ptr, ptr %23, align 8, !tbaa !10
  %25 = icmp eq ptr %24, null
  br i1 %25, label %26, label %36

26:                                               ; preds = %2
  %27 = getelementptr inbounds nuw %"struct.icu_77::number::impl::Modifier::Parameters", ptr %7, i32 0, i32 0
  %28 = load ptr, ptr %27, align 8, !tbaa !10
  %29 = icmp eq ptr %28, null
  br i1 %29, label %30, label %36

30:                                               ; preds = %26
  %31 = load ptr, ptr %5, align 8, !tbaa !3
  %32 = load ptr, ptr %15, align 8, !tbaa !20
  %33 = getelementptr inbounds ptr, ptr %32, i64 8
  %34 = load ptr, ptr %33, align 8
  %35 = call noundef zeroext i1 %34(ptr noundef nonnull align 8 dereferenceable(8) %15, ptr noundef nonnull align 8 dereferenceable(8) %31)
  store i1 %35, ptr %3, align 1
  store i32 1, ptr %8, align 4
  br label %114

36:                                               ; preds = %26, %2
  %37 = getelementptr inbounds nuw %"struct.icu_77::number::impl::Modifier::Parameters", ptr %6, i32 0, i32 0
  %38 = load ptr, ptr %37, align 8, !tbaa !10
  %39 = icmp eq ptr %38, null
  br i1 %39, label %44, label %40

40:                                               ; preds = %36
  %41 = getelementptr inbounds nuw %"struct.icu_77::number::impl::Modifier::Parameters", ptr %7, i32 0, i32 0
  %42 = load ptr, ptr %41, align 8, !tbaa !10
  %43 = icmp eq ptr %42, null
  br i1 %43, label %44, label %45

44:                                               ; preds = %40, %36
  store i1 false, ptr %3, align 1
  store i32 1, ptr %8, align 4
  br label %114

45:                                               ; preds = %40
  br label %46

46:                                               ; preds = %45
  call void @llvm.lifetime.start.p0(i64 8, ptr %9) #15
  store i64 0, ptr %9, align 8, !tbaa !22
  br label %47

47:                                               ; preds = %108, %46
  %48 = load i64, ptr %9, align 8, !tbaa !22
  %49 = icmp ult i64 %48, 4
  br i1 %49, label %51, label %50

50:                                               ; preds = %47
  store i32 2, ptr %8, align 4
  br label %111

51:                                               ; preds = %47
  call void @llvm.lifetime.start.p0(i64 4, ptr %10) #15
  %52 = load i64, ptr %9, align 8, !tbaa !22
  %53 = trunc i64 %52 to i32
  store i32 %53, ptr %10, align 4, !tbaa !16
  call void @llvm.lifetime.start.p0(i64 8, ptr %11) #15
  store i64 0, ptr %11, align 8, !tbaa !22
  br label %54

54:                                               ; preds = %99, %51
  %55 = load i64, ptr %11, align 8, !tbaa !22
  %56 = icmp ult i64 %55, 8
  br i1 %56, label %58, label %57

57:                                               ; preds = %54
  store i32 5, ptr %8, align 4
  br label %102

58:                                               ; preds = %54
  call void @llvm.lifetime.start.p0(i64 4, ptr %12) #15
  %59 = load i64, ptr %11, align 8, !tbaa !22
  %60 = trunc i64 %59 to i32
  store i32 %60, ptr %12, align 4, !tbaa !17
  call void @llvm.lifetime.start.p0(i64 8, ptr %13) #15
  %61 = getelementptr inbounds nuw %"struct.icu_77::number::impl::Modifier::Parameters", ptr %6, i32 0, i32 0
  %62 = load ptr, ptr %61, align 8, !tbaa !10
  %63 = load i32, ptr %10, align 4, !tbaa !16
  %64 = load i32, ptr %12, align 4, !tbaa !17
  %65 = load ptr, ptr %62, align 8, !tbaa !20
  %66 = getelementptr inbounds ptr, ptr %65, i64 2
  %67 = load ptr, ptr %66, align 8
  %68 = call noundef ptr %67(ptr noundef nonnull align 8 dereferenceable(8) %62, i32 noundef %63, i32 noundef %64)
  store ptr %68, ptr %13, align 8, !tbaa !3
  call void @llvm.lifetime.start.p0(i64 8, ptr %14) #15
  %69 = getelementptr inbounds nuw %"struct.icu_77::number::impl::Modifier::Parameters", ptr %7, i32 0, i32 0
  %70 = load ptr, ptr %69, align 8, !tbaa !10
  %71 = load i32, ptr %10, align 4, !tbaa !16
  %72 = load i32, ptr %12, align 4, !tbaa !17
  %73 = load ptr, ptr %70, align 8, !tbaa !20
  %74 = getelementptr inbounds ptr, ptr %73, i64 2
  %75 = load ptr, ptr %74, align 8
  %76 = call noundef ptr %75(ptr noundef nonnull align 8 dereferenceable(8) %70, i32 noundef %71, i32 noundef %72)
  store ptr %76, ptr %14, align 8, !tbaa !3
  %77 = load ptr, ptr %13, align 8, !tbaa !3
  %78 = load ptr, ptr %14, align 8, !tbaa !3
  %79 = icmp eq ptr %77, %78
  br i1 %79, label %80, label %81

80:                                               ; preds = %58
  store i32 7, ptr %8, align 4
  br label %97

81:                                               ; preds = %58
  %82 = load ptr, ptr %13, align 8, !tbaa !3
  %83 = icmp eq ptr %82, null
  br i1 %83, label %87, label %84

84:                                               ; preds = %81
  %85 = load ptr, ptr %14, align 8, !tbaa !3
  %86 = icmp eq ptr %85, null
  br i1 %86, label %87, label %88

87:                                               ; preds = %84, %81
  store i1 false, ptr %3, align 1
  store i32 1, ptr %8, align 4
  br label %97

88:                                               ; preds = %84
  %89 = load ptr, ptr %13, align 8, !tbaa !3
  %90 = load ptr, ptr %14, align 8, !tbaa !3
  %91 = load ptr, ptr %89, align 8, !tbaa !20
  %92 = getelementptr inbounds ptr, ptr %91, i64 8
  %93 = load ptr, ptr %92, align 8
  %94 = call noundef zeroext i1 %93(ptr noundef nonnull align 8 dereferenceable(8) %89, ptr noundef nonnull align 8 dereferenceable(8) %90)
  br i1 %94, label %96, label %95

95:                                               ; preds = %88
  store i1 false, ptr %3, align 1
  store i32 1, ptr %8, align 4
  br label %97

96:                                               ; preds = %88
  store i32 7, ptr %8, align 4
  br label %97

97:                                               ; preds = %96, %95, %87, %80
  call void @llvm.lifetime.end.p0(i64 8, ptr %14) #15
  call void @llvm.lifetime.end.p0(i64 8, ptr %13) #15
  call void @llvm.lifetime.end.p0(i64 4, ptr %12) #15
  %98 = load i32, ptr %8, align 4
  switch i32 %98, label %102 [
    i32 7, label %99
  ]

99:                                               ; preds = %97
  %100 = load i64, ptr %11, align 8, !tbaa !22
  %101 = add i64 %100, 1
  store i64 %101, ptr %11, align 8, !tbaa !22
  br label %54, !llvm.loop !24

102:                                              ; preds = %97, %57
  call void @llvm.lifetime.end.p0(i64 8, ptr %11) #15
  %103 = load i32, ptr %8, align 4
  switch i32 %103, label %105 [
    i32 5, label %104
  ]

104:                                              ; preds = %102
  store i32 0, ptr %8, align 4
  br label %105

105:                                              ; preds = %104, %102
  call void @llvm.lifetime.end.p0(i64 4, ptr %10) #15
  %106 = load i32, ptr %8, align 4
  switch i32 %106, label %111 [
    i32 0, label %107
  ]

107:                                              ; preds = %105
  br label %108

108:                                              ; preds = %107
  %109 = load i64, ptr %9, align 8, !tbaa !22
  %110 = add i64 %109, 1
  store i64 %110, ptr %9, align 8, !tbaa !22
  br label %47, !llvm.loop !26

111:                                              ; preds = %105, %50
  call void @llvm.lifetime.end.p0(i64 8, ptr %9) #15
  %112 = load i32, ptr %8, align 4
  switch i32 %112, label %114 [
    i32 2, label %113
  ]

113:                                              ; preds = %111
  store i1 true, ptr %3, align 1
  store i32 1, ptr %8, align 4
  br label %114

114:                                              ; preds = %113, %111, %44, %30
  call void @llvm.lifetime.end.p0(i64 16, ptr %7) #15
  call void @llvm.lifetime.end.p0(i64 16, ptr %6) #15
  %115 = load i1, ptr %3, align 1
  ret i1 %115
}