; Function Attrs: mustprogress uwtable
define noundef zeroext i1 @_ZNK6icu_776number4impl8Modifier22semanticallyEquivalentERKS2_(ptr noundef nonnull align 8 dereferenceable(8) %0, ptr noundef nonnull align 8 dereferenceable(8) %1) local_unnamed_addr #4 align 2 {
  %3 = alloca %"struct.icu_77::number::impl::Modifier::Parameters", align 8
  %4 = alloca %"struct.icu_77::number::impl::Modifier::Parameters", align 8
  call void @llvm.lifetime.start.p0(i64 16, ptr nonnull %3) #19
  call void @_ZN6icu_776number4impl8Modifier10ParametersC1Ev(ptr noundef nonnull align 8 dereferenceable(16) %3)
  call void @llvm.lifetime.start.p0(i64 16, ptr nonnull %4) #19
  call void @_ZN6icu_776number4impl8Modifier10ParametersC1Ev(ptr noundef nonnull align 8 dereferenceable(16) %4)
  %5 = load ptr, ptr %0, align 8, !tbaa !13
  %6 = getelementptr inbounds nuw i8, ptr %5, i64 56
  %7 = load ptr, ptr %6, align 8
  call void %7(ptr noundef nonnull align 8 dereferenceable(8) %0, ptr noundef nonnull align 8 dereferenceable(16) %3)
  %8 = load ptr, ptr %1, align 8, !tbaa !13
  %9 = getelementptr inbounds nuw i8, ptr %8, i64 56
  %10 = load ptr, ptr %9, align 8
  call void %10(ptr noundef nonnull align 8 dereferenceable(8) %1, ptr noundef nonnull align 8 dereferenceable(16) %4)
  %11 = load ptr, ptr %3, align 8, !tbaa !3
  %12 = icmp eq ptr %11, null
  %13 = load ptr, ptr %4, align 8
  %14 = icmp eq ptr %13, null
  %or.cond = select i1 %12, i1 %14, i1 false
  br i1 %or.cond, label %15, label %20

15:                                               ; preds = %2
  %16 = load ptr, ptr %0, align 8, !tbaa !13
  %17 = getelementptr inbounds nuw i8, ptr %16, i64 64
  %18 = load ptr, ptr %17, align 8
  %19 = call noundef zeroext i1 %18(ptr noundef nonnull align 8 dereferenceable(8) %0, ptr noundef nonnull align 8 dereferenceable(8) %1)
  br label %.critedge41

20:                                               ; preds = %2
  %or.cond8 = select i1 %12, i1 true, i1 %14
  br i1 %or.cond8, label %.critedge41, label %.preheader

.preheader:                                       ; preds = %20, %.critedge42
  %.03645 = phi i64 [ %44, %.critedge42 ], [ 0, %20 ]
  %21 = trunc nuw nsw i64 %.03645 to i32
  br label %22

22:                                               ; preds = %.preheader, %.critedge
  %.03744 = phi i64 [ 0, %.preheader ], [ %43, %.critedge ]
  %23 = trunc nuw nsw i64 %.03744 to i32
  %24 = load ptr, ptr %3, align 8, !tbaa !3
  %25 = load ptr, ptr %24, align 8, !tbaa !13
  %26 = getelementptr inbounds nuw i8, ptr %25, i64 16
  %27 = load ptr, ptr %26, align 8
  %28 = call noundef ptr %27(ptr noundef nonnull align 8 dereferenceable(8) %24, i32 noundef %21, i32 noundef %23)
  %29 = load ptr, ptr %4, align 8, !tbaa !3
  %30 = load ptr, ptr %29, align 8, !tbaa !13
  %31 = getelementptr inbounds nuw i8, ptr %30, i64 16
  %32 = load ptr, ptr %31, align 8
  %33 = call noundef ptr %32(ptr noundef nonnull align 8 dereferenceable(8) %29, i32 noundef %21, i32 noundef %23)
  %34 = icmp eq ptr %28, %33
  br i1 %34, label %.critedge, label %35

35:                                               ; preds = %22
  %36 = icmp eq ptr %28, null
  %37 = icmp eq ptr %33, null
  %or.cond10 = or i1 %36, %37
  br i1 %or.cond10, label %.critedge41, label %38

38:                                               ; preds = %35
  %39 = load ptr, ptr %28, align 8, !tbaa !13
  %40 = getelementptr inbounds nuw i8, ptr %39, i64 64
  %41 = load ptr, ptr %40, align 8
  %42 = call noundef zeroext i1 %41(ptr noundef nonnull align 8 dereferenceable(8) %28, ptr noundef nonnull align 8 dereferenceable(8) %33)
  br i1 %42, label %.critedge, label %.critedge41

.critedge:                                        ; preds = %22, %38
  %43 = add nuw nsw i64 %.03744, 1
  %exitcond = icmp eq i64 %43, 8
  br i1 %exitcond, label %.critedge42, label %22, !llvm.loop !15

.critedge42:                                      ; preds = %.critedge
  %44 = add nuw nsw i64 %.03645, 1
  %exitcond47 = icmp eq i64 %44, 4
  br i1 %exitcond47, label %.critedge41, label %.preheader, !llvm.loop !17

.critedge41:                                      ; preds = %.critedge42, %35, %38, %20, %15
  %.0 = phi i1 [ %19, %15 ], [ false, %20 ], [ false, %38 ], [ false, %35 ], [ true, %.critedge42 ]
  call void @llvm.lifetime.end.p0(i64 16, ptr nonnull %4) #19
  call void @llvm.lifetime.end.p0(i64 16, ptr nonnull %3) #19
  ret i1 %.0
}